target datalayout = "e-m:e-p270:32:32-p271:32:32-p272:64:64-i64:64-i128:128-f80:128-n8:16:32:64-S128"
target triple = "x86_64-pc-linux-gnu"

; Function Attrs: mustprogress nounwind uwtable
define linkonce_odr dso_local noundef i64 @_ZN4absl13cord_internal18TagToAllocatedSizeEh(i8 noundef zeroext %0) #5 comdat {
  %2 = alloca i8, align 1
  store i8 %0, ptr %2, align 1, !tbaa !58
  %3 = load i8, ptr %2, align 1, !tbaa !58
  %4 = zext i8 %3 to i32
  %5 = icmp sle i32 %4, 66
  br i1 %5, label %6, label %11

6:                                                ; preds = %1
  %7 = load i8, ptr %2, align 1, !tbaa !58
  %8 = zext i8 %7 to i32
  %9 = mul nsw i32 %8, 8
  %10 = sub nsw i32 %9, 16
  br label %31

11:                                               ; preds = %1
  %12 = load i8, ptr %2, align 1, !tbaa !58
  %13 = zext i8 %12 to i32
  %14 = icmp sle i32 %13, 186
  br i1 %14, label %15, label %22

15:                                               ; preds = %11
  %16 = load i8, ptr %2, align 1, !tbaa !58
  %17 = zext i8 %16 to i32
  %18 = mul nsw i32 %17, 64
  %19 = add nsw i32 512, %18
  %20 = sub nsw i32 %19, 128
  %21 = sub nsw i32 %20, 4096
  br label %29

22:                                               ; preds = %11
  %23 = load i8, ptr %2, align 1, !tbaa !58
  %24 = zext i8 %23 to i32
  %25 = mul nsw i32 %24, 4096
  %26 = add nsw i32 8192, %25
  %27 = sub nsw i32 %26, 8192
  %28 = sub nsw i32 %27, 753664
  br label %29

29:                                               ; preds = %22, %15
  %30 = phi i32 [ %21, %15 ], [ %28, %22 ]
  br label %31

31:                                               ; preds = %29, %6
  %32 = phi i32 [ %10, %6 ], [ %30, %29 ]
  %33 = sext i32 %32 to i64
  ret i64 %33
}

; Function Attrs: mustprogress nounwind uwtable
define linkonce_odr dso_local noundef i64 @_ZN4absl13cord_internal11TagToLengthEh(i8 noundef zeroext %0) #5 comdat {
  %2 = alloca i8, align 1
  store i8 %0, ptr %2, align 1, !tbaa !58
  %3 = load i8, ptr %2, align 1, !tbaa !58
  %4 = call noundef i64 @_ZN4absl13cord_internal18TagToAllocatedSizeEh(i8 noundef zeroext %3)
  %5 = sub i64 %4, 13
  ret i64 %5
}

; Function Attrs: mustprogress uwtable
define dso_local noundef i64 @_ZN4absl16strings_internal14CordTestAccess15FlatTagToLengthEh(i8 noundef zeroext %0) #4 align 2 {
  %2 = alloca i8, align 1
  store i8 %0, ptr %2, align 1, !tbaa !58
  %3 = load i8, ptr %2, align 1, !tbaa !58
  %4 = call noundef i64 @_ZN4absl13cord_internal11TagToLengthEh(i8 noundef zeroext %3)
  ret i64 %4
}