; Function Attrs: mustprogress nofree norecurse nosync nounwind willreturn memory(none) uwtable
define dso_local noundef range(i64 -753677, 1044452) i64 @_ZN4absl16strings_internal14CordTestAccess15FlatTagToLengthEh(i8 noundef zeroext %0) local_unnamed_addr #10 align 2 {
  %2 = zext i8 %0 to i32
  %3 = icmp ult i8 %0, 67
  %4 = icmp ult i8 %0, -69
  %..i.i = select i1 %4, i32 6, i32 12
  %.sink6.i.i = select i1 %3, i32 3, i32 %..i.i
  %5 = shl nuw nsw i32 %2, %.sink6.i.i
  %6 = select i1 %4, i32 -3725, i32 -753677
  %7 = select i1 %3, i32 -29, i32 %6
  %narrow.i = add nsw i32 %5, %7
  %8 = sext i32 %narrow.i to i64
  ret i64 %8
}